; ModuleID = 'source-C-CXX/14/1990.c'
source_filename = "source-C-CXX/14/1990.c"
target datalayout = "e-m:e-p270:32:32-p271:32:32-p272:64:64-i64:64-f80:128-n8:16:32:64-S128"
target triple = "x86_64-pc-linux-gnu"

@.str = private unnamed_addr constant [3 x i8] c"%d\00", align 1

; Function Attrs: nofree nounwind sspstrong uwtable
define dso_local i32 @main() local_unnamed_addr #0 {
  %1 = alloca i32, align 4
  %2 = alloca i32, align 4
  %3 = bitcast i32* %1 to i8*
  call void @llvm.lifetime.start.p0i8(i64 4, i8* nonnull %3) #3
  %4 = bitcast i32* %2 to i8*
  call void @llvm.lifetime.start.p0i8(i64 4, i8* nonnull %4) #3
  %5 = call i32 (i8*, ...) @__isoc99_scanf(i8* getelementptr inbounds ([3 x i8], [3 x i8]* @.str, i64 0, i64 0), i32* nonnull %1)
  %6 = load i32, i32* %1, align 4, !tbaa !5
  %7 = mul nsw i32 %6, %6
  %8 = icmp eq i32 %7, 0
  br i1 %8, label %26, label %9

9:                                                ; preds = %0, %9
  %10 = phi i32 [ %21, %9 ], [ undef, %0 ]
  %11 = phi i32 [ %20, %9 ], [ undef, %0 ]
  %12 = phi i32 [ %19, %9 ], [ 1, %0 ]
  %13 = phi i32 [ %22, %9 ], [ 0, %0 ]
  %14 = call i32 (i8*, ...) @__isoc99_scanf(i8* getelementptr inbounds ([3 x i8], [3 x i8]* @.str, i64 0, i64 0), i32* nonnull %2)
  %15 = load i32, i32* %2, align 4, !tbaa !5
  %16 = icmp eq i32 %15, 0
  %17 = icmp eq i32 %12, 0
  %18 = select i1 %17, i32 %10, i32 %13
  %19 = select i1 %16, i32 0, i32 %12
  %20 = select i1 %16, i32 %13, i32 %11
  %21 = select i1 %16, i32 %18, i32 %10
  %22 = add nuw nsw i32 %13, 1
  %23 = load i32, i32* %1, align 4, !tbaa !5
  %24 = mul nsw i32 %23, %23
  %25 = icmp ult i32 %22, %24
  br i1 %25, label %9, label %26, !llvm.loop !9

26:                                               ; preds = %9, %0
  %27 = phi i32 [ undef, %0 ], [ %20, %9 ]
  %28 = phi i32 [ undef, %0 ], [ %21, %9 ]
  %29 = phi i32 [ %6, %0 ], [ %23, %9 ]
  %30 = srem i32 %27, %29
  %31 = srem i32 %28, %29
  %32 = xor i32 %31, -1
  %33 = add i32 %30, %32
  %34 = sdiv i32 %27, %29
  %35 = sdiv i32 %28, %29
  %36 = xor i32 %35, -1
  %37 = add i32 %34, %36
  %38 = mul nsw i32 %37, %33
  %39 = call i32 (i8*, ...) @printf(i8* nonnull dereferenceable(1) getelementptr inbounds ([3 x i8], [3 x i8]* @.str, i64 0, i64 0), i32 %38)
  call void @llvm.lifetime.end.p0i8(i64 4, i8* nonnull %4) #3
  call void @llvm.lifetime.end.p0i8(i64 4, i8* nonnull %3) #3
  ret i32 0
}

; Function Attrs: argmemonly mustprogress nofree nosync nounwind willreturn
declare void @llvm.lifetime.start.p0i8(i64 immarg, i8* nocapture) #1

; Function Attrs: nofree nounwind
declare noundef i32 @__isoc99_scanf(i8* nocapture noundef readonly, ...) local_unnamed_addr #2

; Function Attrs: nofree nounwind
declare noundef i32 @printf(i8* nocapture noundef readonly, ...) local_unnamed_addr #2

; Function Attrs: argmemonly mustprogress nofree nosync nounwind willreturn
declare void @llvm.lifetime.end.p0i8(i64 immarg, i8* nocapture) #1


!llvm.module.flags = !{!0, !1, !2, !3}
!llvm.ident = !{!4}

!0 = !{i32 1, !"wchar_size", i32 4}
!1 = !{i32 7, !"PIC Level", i32 2}
!2 = !{i32 7, !"PIE Level", i32 2}
!3 = !{i32 7, !"uwtable", i32 1}
!4 = !{!"clang version 13.0.0"}
!5 = !{!6, !6, i64 0}
!6 = !{!"int", !7, i64 0}
!7 = !{!"omnipotent char", !8, i64 0}
!8 = !{!"Simple C/C++ TBAA"}
!9 = distinct !{!9, !10}
!10 = !{!"llvm.loop.mustprogress"}
